target datalayout = "e-m:e-p270:32:32-p271:32:32-p272:64:64-i64:64-i128:128-f80:128-n8:16:32:64-S128"
target triple = "x86_64-pc-linux-gnu"

; Function Attrs: nounwind uwtable
define hidden i32 @phpdbg_do_info_break(ptr noundef %0) #0 {
  %2 = alloca ptr, align 8
  store ptr %0, ptr %2, align 8, !tbaa !4
  call void @phpdbg_print_breakpoints(i64 noundef 0)
  call void @phpdbg_print_breakpoints(i64 noundef 2)
  call void @phpdbg_print_breakpoints(i64 noundef 4)
  call void @phpdbg_print_breakpoints(i64 noundef 3)
  call void @phpdbg_print_breakpoints(i64 noundef 9)
  call void @phpdbg_print_breakpoints(i64 noundef 7)
  call void @phpdbg_print_breakpoints(i64 noundef 8)
  call void @phpdbg_print_breakpoints(i64 noundef 5)
  call void @phpdbg_print_breakpoints(i64 noundef 6)
  ret i32 0
}