; Function Attrs: nounwind uwtable
define hidden noundef i32 @phpdbg_do_info_break(ptr readnone captures(none) %0) #0 {
  tail call void @phpdbg_print_breakpoints(i64 noundef 0) #6
  tail call void @phpdbg_print_breakpoints(i64 noundef 2) #6
  tail call void @phpdbg_print_breakpoints(i64 noundef 4) #6
  tail call void @phpdbg_print_breakpoints(i64 noundef 3) #6
  tail call void @phpdbg_print_breakpoints(i64 noundef 9) #6
  tail call void @phpdbg_print_breakpoints(i64 noundef 7) #6
  tail call void @phpdbg_print_breakpoints(i64 noundef 8) #6
  tail call void @phpdbg_print_breakpoints(i64 noundef 5) #6
  tail call void @phpdbg_print_breakpoints(i64 noundef 6) #6
  ret i32 0
}